target datalayout = "e-m:e-p270:32:32-p271:32:32-p272:64:64-i64:64-i128:128-f80:128-n8:16:32:64-S128"
target triple = "x86_64-pc-linux-gnu"

%struct.expert_field = type { i32, i32 }
%struct._packet_info = type { ptr, ptr, i32, i32, %struct.nstime_t, %struct.nstime_t, %struct.nstime_t, i8, ptr, ptr, ptr, ptr, %struct._address, %struct._address, %struct._address, %struct._address, %struct._address, %struct._address, i32, ptr, i8, [3 x i8], %struct.anon, i32, i32, i32, i32, ptr, i8, ptr, ptr, i16, i16, i32, i32, i16, i32, i32, ptr, ptr, ptr, i8, i8, i16, i16, i16, i32, i16, i16, ptr, ptr, ptr, ptr, ptr, i32, i32 }
%struct.nstime_t = type { i64, i32 }
%struct._address = type { i32, i32, ptr, ptr }
%struct.anon = type { i8, [3 x i8] }

@hf_olsr_data = internal global i32 0, align 4
@hf_olsrorg_ns = internal global i32 0, align 4
@hf_olsrorg_ns_version = internal global i32 0, align 4
@hf_olsrorg_ns_count = internal global i32 0, align 4
@hf_olsrorg_ns_type = internal global i32 0, align 4
@hf_olsrorg_ns_length = internal global i32 0, align 4
@hf_olsrorg_ns_ip = internal global i32 0, align 4
@hf_olsrorg_ns_ip6 = internal global i32 0, align 4
@hf_olsrorg_ns_content = internal global i32 0, align 4
@ett_olsr_message_ns = internal global i32 0, align 4
@ei_olsr_not_enough_bytes = internal global %struct.expert_field zeroinitializer, align 4
@ei_olsrorg_ns_version = internal global %struct.expert_field zeroinitializer, align 4
@.str.122 = private unnamed_addr constant [8 x i8] c"%s (%d)\00", align 1
@.str.123 = private unnamed_addr constant [8 x i8] c"UNKNOWN\00", align 1
@.str.140 = private unnamed_addr constant [50 x i8] c"Not enough bytes for Olsr.org Nameservice message\00", align 1
@.str.141 = private unnamed_addr constant [44 x i8] c"Not enough bytes for last nameservice entry\00", align 1
@.str.142 = private unnamed_addr constant [55 x i8] c"Not enough bytes for content of last nameservice entry\00", align 1

; Function Attrs: null_pointer_is_valid sspstrong uwtable
define internal i32 @dissect_olsrorg_nameservice(ptr noundef %0, ptr noundef %1, ptr noundef %2, i32 noundef %3, i32 noundef %4) #0 {
  %6 = alloca i32, align 4
  %7 = alloca ptr, align 8
  %8 = alloca ptr, align 8
  %9 = alloca ptr, align 8
  %10 = alloca i32, align 4
  %11 = alloca i32, align 4
  %12 = alloca i16, align 2
  %13 = alloca i16, align 2
  %14 = alloca ptr, align 8
  %15 = alloca ptr, align 8
  %16 = alloca ptr, align 8
  %17 = alloca i32, align 4
  %18 = alloca i16, align 2
  %19 = alloca i16, align 2
  %20 = alloca i32, align 4
  store ptr %0, ptr %7, align 8
  store ptr %1, ptr %8, align 8
  store ptr %2, ptr %9, align 8
  store i32 %3, ptr %10, align 4
  store i32 %4, ptr %11, align 4
  call void @llvm.lifetime.start.p0(i64 2, ptr %12) #7
  call void @llvm.lifetime.start.p0(i64 2, ptr %13) #7
  call void @llvm.lifetime.start.p0(i64 8, ptr %14) #7
  call void @llvm.lifetime.start.p0(i64 8, ptr %15) #7
  call void @llvm.lifetime.start.p0(i64 8, ptr %16) #7
  %21 = load i32, ptr %11, align 4
  %22 = load i32, ptr %10, align 4
  %23 = sub i32 %21, %22
  %24 = icmp slt i32 %23, 4
  br i1 %24, label %25, label %35

25:                                               ; preds = %5
  %26 = load ptr, ptr %9, align 8
  %27 = load ptr, ptr %8, align 8
  %28 = load ptr, ptr %7, align 8
  %29 = load i32, ptr %10, align 4
  %30 = load i32, ptr %11, align 4
  %31 = load i32, ptr %10, align 4
  %32 = sub i32 %30, %31
  %33 = call ptr (ptr, ptr, ptr, ptr, i32, i32, ptr, ...) @proto_tree_add_expert_format(ptr noundef %26, ptr noundef %27, ptr noundef @ei_olsr_not_enough_bytes, ptr noundef %28, i32 noundef %29, i32 noundef %32, ptr noundef @.str.140)
  %34 = load i32, ptr %11, align 4
  store i32 %34, ptr %6, align 4
  store i32 1, ptr %17, align 4
  br label %205

35:                                               ; preds = %5
  %36 = load ptr, ptr %7, align 8
  %37 = load i32, ptr %10, align 4
  %38 = call zeroext i16 @tvb_get_ntohs(ptr noundef %36, i32 noundef %37)
  store i16 %38, ptr %12, align 2
  %39 = load ptr, ptr %9, align 8
  %40 = load i32, ptr @hf_olsrorg_ns_version, align 4
  %41 = load ptr, ptr %7, align 8
  %42 = load i32, ptr %10, align 4
  %43 = call ptr @proto_tree_add_item(ptr noundef %39, i32 noundef %40, ptr noundef %41, i32 noundef %42, i32 noundef 2, i32 noundef 0)
  store ptr %43, ptr %15, align 8
  %44 = load ptr, ptr %7, align 8
  %45 = load i32, ptr %10, align 4
  %46 = add i32 %45, 2
  %47 = call zeroext i16 @tvb_get_ntohs(ptr noundef %44, i32 noundef %46)
  store i16 %47, ptr %13, align 2
  %48 = load ptr, ptr %9, align 8
  %49 = load i32, ptr @hf_olsrorg_ns_count, align 4
  %50 = load ptr, ptr %7, align 8
  %51 = load i32, ptr %10, align 4
  %52 = add i32 %51, 2
  %53 = call ptr @proto_tree_add_item(ptr noundef %48, i32 noundef %49, ptr noundef %50, i32 noundef %52, i32 noundef 2, i32 noundef 0)
  %54 = load i32, ptr %10, align 4
  %55 = add i32 %54, 4
  store i32 %55, ptr %10, align 4
  %56 = load i16, ptr %12, align 2
  %57 = zext i16 %56 to i32
  %58 = icmp ne i32 %57, 1
  br i1 %58, label %59, label %72

59:                                               ; preds = %35
  %60 = load ptr, ptr %8, align 8
  %61 = load ptr, ptr %15, align 8
  %62 = call ptr @expert_add_info(ptr noundef %60, ptr noundef %61, ptr noundef @ei_olsrorg_ns_version)
  %63 = load ptr, ptr %9, align 8
  %64 = load i32, ptr @hf_olsr_data, align 4
  %65 = load ptr, ptr %7, align 8
  %66 = load i32, ptr %10, align 4
  %67 = load i32, ptr %11, align 4
  %68 = load i32, ptr %10, align 4
  %69 = sub i32 %67, %68
  %70 = call ptr @proto_tree_add_item(ptr noundef %63, i32 noundef %64, ptr noundef %65, i32 noundef %66, i32 noundef %69, i32 noundef 0)
  %71 = load i32, ptr %11, align 4
  store i32 %71, ptr %6, align 4
  store i32 1, ptr %17, align 4
  br label %205

72:                                               ; preds = %35
  br label %73

73:                                               ; preds = %202, %72
  %74 = load i32, ptr %10, align 4
  %75 = load i32, ptr %11, align 4
  %76 = icmp slt i32 %74, %75
  br i1 %76, label %77, label %82

77:                                               ; preds = %73
  %78 = load i16, ptr %13, align 2
  %79 = add i16 %78, -1
  store i16 %79, ptr %13, align 2
  %80 = zext i16 %78 to i32
  %81 = icmp sgt i32 %80, 0
  br label %82

82:                                               ; preds = %77, %73
  %83 = phi i1 [ false, %73 ], [ %81, %77 ]
  br i1 %83, label %84, label %203

84:                                               ; preds = %82
  call void @llvm.lifetime.start.p0(i64 2, ptr %18) #7
  call void @llvm.lifetime.start.p0(i64 2, ptr %19) #7
  call void @llvm.lifetime.start.p0(i64 4, ptr %20) #7
  %85 = load i32, ptr %11, align 4
  %86 = load i32, ptr %10, align 4
  %87 = sub i32 %85, %86
  %88 = icmp slt i32 %87, 20
  br i1 %88, label %89, label %99

89:                                               ; preds = %84
  %90 = load ptr, ptr %9, align 8
  %91 = load ptr, ptr %8, align 8
  %92 = load ptr, ptr %7, align 8
  %93 = load i32, ptr %10, align 4
  %94 = load i32, ptr %11, align 4
  %95 = load i32, ptr %10, align 4
  %96 = sub i32 %94, %95
  %97 = call ptr (ptr, ptr, ptr, ptr, i32, i32, ptr, ...) @proto_tree_add_expert_format(ptr noundef %90, ptr noundef %91, ptr noundef @ei_olsr_not_enough_bytes, ptr noundef %92, i32 noundef %93, i32 noundef %96, ptr noundef @.str.141)
  %98 = load i32, ptr %11, align 4
  store i32 %98, ptr %6, align 4
  store i32 1, ptr %17, align 4
  br label %200

99:                                               ; preds = %84
  %100 = load ptr, ptr %7, align 8
  %101 = load i32, ptr %10, align 4
  %102 = call zeroext i16 @tvb_get_ntohs(ptr noundef %100, i32 noundef %101)
  store i16 %102, ptr %18, align 2
  %103 = load ptr, ptr %7, align 8
  %104 = load i32, ptr %10, align 4
  %105 = add i32 %104, 2
  %106 = call zeroext i16 @tvb_get_ntohs(ptr noundef %103, i32 noundef %105)
  store i16 %106, ptr %19, align 2
  %107 = load i16, ptr %19, align 2
  %108 = zext i16 %107 to i32
  %109 = sub i32 %108, 1
  %110 = or i32 %109, 3
  %111 = add i32 20, %110
  %112 = add i32 %111, 1
  store i32 %112, ptr %20, align 4
  %113 = load ptr, ptr %9, align 8
  %114 = load i32, ptr @hf_olsrorg_ns, align 4
  %115 = load ptr, ptr %7, align 8
  %116 = load i32, ptr %10, align 4
  %117 = load i32, ptr %20, align 4
  %118 = load i16, ptr %18, align 2
  %119 = zext i16 %118 to i32
  %120 = call ptr @val_to_str_const(i32 noundef %119, ptr noundef @nameservice_type_vals, ptr noundef @.str.123)
  %121 = load i16, ptr %18, align 2
  %122 = zext i16 %121 to i32
  %123 = call ptr (ptr, i32, ptr, i32, i32, ptr, ptr, ...) @proto_tree_add_bytes_format_value(ptr noundef %113, i32 noundef %114, ptr noundef %115, i32 noundef %116, i32 noundef %117, ptr noundef null, ptr noundef @.str.122, ptr noundef %120, i32 noundef %122)
  store ptr %123, ptr %14, align 8
  %124 = load ptr, ptr %14, align 8
  %125 = load i32, ptr @ett_olsr_message_ns, align 4
  %126 = call ptr @proto_item_add_subtree(ptr noundef %124, i32 noundef %125)
  store ptr %126, ptr %16, align 8
  %127 = load ptr, ptr %16, align 8
  %128 = load i32, ptr @hf_olsrorg_ns_type, align 4
  %129 = load ptr, ptr %7, align 8
  %130 = load i32, ptr %10, align 4
  %131 = call ptr @proto_tree_add_item(ptr noundef %127, i32 noundef %128, ptr noundef %129, i32 noundef %130, i32 noundef 2, i32 noundef 0)
  %132 = load ptr, ptr %16, align 8
  %133 = load i32, ptr @hf_olsrorg_ns_length, align 4
  %134 = load ptr, ptr %7, align 8
  %135 = load i32, ptr %10, align 4
  %136 = add i32 %135, 2
  %137 = load i16, ptr %19, align 2
  %138 = zext i16 %137 to i32
  %139 = call ptr @proto_tree_add_uint(ptr noundef %132, i32 noundef %133, ptr noundef %134, i32 noundef %136, i32 noundef 2, i32 noundef %138)
  %140 = load ptr, ptr %8, align 8
  %141 = getelementptr inbounds nuw %struct._packet_info, ptr %140, i32 0, i32 16
  %142 = getelementptr inbounds nuw %struct._address, ptr %141, i32 0, i32 0
  %143 = load i32, ptr %142, align 8
  %144 = icmp eq i32 %143, 2
  br i1 %144, label %145, label %152

145:                                              ; preds = %99
  %146 = load ptr, ptr %16, align 8
  %147 = load i32, ptr @hf_olsrorg_ns_ip, align 4
  %148 = load ptr, ptr %7, align 8
  %149 = load i32, ptr %10, align 4
  %150 = add i32 %149, 4
  %151 = call ptr @proto_tree_add_item(ptr noundef %146, i32 noundef %147, ptr noundef %148, i32 noundef %150, i32 noundef 4, i32 noundef 0)
  br label %167

152:                                              ; preds = %99
  %153 = load ptr, ptr %8, align 8
  %154 = getelementptr inbounds nuw %struct._packet_info, ptr %153, i32 0, i32 16
  %155 = getelementptr inbounds nuw %struct._address, ptr %154, i32 0, i32 0
  %156 = load i32, ptr %155, align 8
  %157 = icmp eq i32 %156, 3
  br i1 %157, label %158, label %165

158:                                              ; preds = %152
  %159 = load ptr, ptr %16, align 8
  %160 = load i32, ptr @hf_olsrorg_ns_ip6, align 4
  %161 = load ptr, ptr %7, align 8
  %162 = load i32, ptr %10, align 4
  %163 = add i32 %162, 4
  %164 = call ptr @proto_tree_add_item(ptr noundef %159, i32 noundef %160, ptr noundef %161, i32 noundef %163, i32 noundef 16, i32 noundef 0)
  br label %166

165:                                              ; preds = %152
  store i32 3, ptr %17, align 4
  br label %200

166:                                              ; preds = %158
  br label %167

167:                                              ; preds = %166, %145
  %168 = load i32, ptr %11, align 4
  %169 = load i32, ptr %10, align 4
  %170 = sub i32 %168, %169
  %171 = load i32, ptr %20, align 4
  %172 = icmp slt i32 %170, %171
  br i1 %172, label %173, label %183

173:                                              ; preds = %167
  %174 = load ptr, ptr %9, align 8
  %175 = load ptr, ptr %8, align 8
  %176 = load ptr, ptr %7, align 8
  %177 = load i32, ptr %10, align 4
  %178 = load i32, ptr %11, align 4
  %179 = load i32, ptr %10, align 4
  %180 = sub i32 %178, %179
  %181 = call ptr (ptr, ptr, ptr, ptr, i32, i32, ptr, ...) @proto_tree_add_expert_format(ptr noundef %174, ptr noundef %175, ptr noundef @ei_olsr_not_enough_bytes, ptr noundef %176, i32 noundef %177, i32 noundef %180, ptr noundef @.str.142)
  %182 = load i32, ptr %11, align 4
  store i32 %182, ptr %6, align 4
  store i32 1, ptr %17, align 4
  br label %200

183:                                              ; preds = %167
  %184 = load ptr, ptr %16, align 8
  %185 = load i32, ptr @hf_olsrorg_ns_content, align 4
  %186 = load ptr, ptr %7, align 8
  %187 = load i32, ptr %10, align 4
  %188 = add i32 %187, 20
  %189 = load i16, ptr %19, align 2
  %190 = zext i16 %189 to i32
  %191 = call ptr @proto_tree_add_item(ptr noundef %184, i32 noundef %185, ptr noundef %186, i32 noundef %188, i32 noundef %190, i32 noundef 0)
  %192 = load i16, ptr %19, align 2
  %193 = zext i16 %192 to i32
  %194 = sub i32 %193, 1
  %195 = or i32 %194, 3
  %196 = add i32 20, %195
  %197 = add i32 %196, 1
  %198 = load i32, ptr %10, align 4
  %199 = add i32 %198, %197
  store i32 %199, ptr %10, align 4
  store i32 0, ptr %17, align 4
  br label %200

200:                                              ; preds = %183, %173, %165, %89
  call void @llvm.lifetime.end.p0(i64 4, ptr %20) #7
  call void @llvm.lifetime.end.p0(i64 2, ptr %19) #7
  call void @llvm.lifetime.end.p0(i64 2, ptr %18) #7
  %201 = load i32, ptr %17, align 4
  switch i32 %201, label %205 [
    i32 0, label %202
    i32 3, label %203
  ]

202:                                              ; preds = %200
  br label %73, !llvm.loop !18

203:                                              ; preds = %200, %82
  %204 = load i32, ptr %11, align 4
  store i32 %204, ptr %6, align 4
  store i32 1, ptr %17, align 4
  br label %205

205:                                              ; preds = %203, %200, %59, %25
  call void @llvm.lifetime.end.p0(i64 8, ptr %16) #7
  call void @llvm.lifetime.end.p0(i64 8, ptr %15) #7
  call void @llvm.lifetime.end.p0(i64 8, ptr %14) #7
  call void @llvm.lifetime.end.p0(i64 2, ptr %13) #7
  call void @llvm.lifetime.end.p0(i64 2, ptr %12) #7
  %206 = load i32, ptr %6, align 4
  ret i32 %206
}