; Function Attrs: null_pointer_is_valid sspstrong uwtable
define internal fastcc noundef range(i32 17, 65536) i32 @dissect_olsrorg_nameservice(ptr noundef %0, ptr noundef %1, ptr noundef %2, i32 noundef range(i32 16, 65535) %3, i32 noundef returned range(i32 17, 65536) %4) unnamed_addr #0 {
  %6 = sub nsw i32 %4, %3
  %7 = icmp slt i32 %6, 4
  br i1 %7, label %8, label %10

8:                                                ; preds = %5
  %9 = tail call ptr (ptr, ptr, ptr, ptr, i32, i32, ptr, ...) @proto_tree_add_expert_format(ptr noundef %2, ptr noundef %1, ptr noundef nonnull @ei_olsr_not_enough_bytes, ptr noundef %0, i32 noundef %3, i32 noundef %6, ptr noundef nonnull @.str.140)
  br label %.critedge

10:                                               ; preds = %5
  %11 = tail call zeroext i16 @tvb_get_ntohs(ptr noundef %0, i32 noundef %3)
  %12 = load i32, ptr @hf_olsrorg_ns_version, align 4
  %13 = tail call ptr @proto_tree_add_item(ptr noundef %2, i32 noundef %12, ptr noundef %0, i32 noundef %3, i32 noundef 2, i32 noundef 0)
  %14 = add nuw nsw i32 %3, 2
  %15 = tail call zeroext i16 @tvb_get_ntohs(ptr noundef %0, i32 noundef %14)
  %16 = load i32, ptr @hf_olsrorg_ns_count, align 4
  %17 = tail call ptr @proto_tree_add_item(ptr noundef %2, i32 noundef %16, ptr noundef %0, i32 noundef %14, i32 noundef 2, i32 noundef 0)
  %18 = add nuw nsw i32 %3, 4
  %.not = icmp eq i16 %11, 1
  br i1 %.not, label %.preheader, label %21

.preheader:                                       ; preds = %10
  %19 = icmp samesign ult i32 %18, %4
  br i1 %19, label %.lr.ph, label %.critedge

.lr.ph:                                           ; preds = %.preheader
  %20 = getelementptr inbounds nuw i8, ptr %1, i64 208
  br label %26

21:                                               ; preds = %10
  %22 = tail call ptr @expert_add_info(ptr noundef %1, ptr noundef %13, ptr noundef nonnull @ei_olsrorg_ns_version)
  %23 = load i32, ptr @hf_olsr_data, align 4
  %24 = sub nsw i32 %4, %18
  %25 = tail call ptr @proto_tree_add_item(ptr noundef %2, i32 noundef %23, ptr noundef %0, i32 noundef %18, i32 noundef %24, i32 noundef 0)
  br label %.critedge

26:                                               ; preds = %.lr.ph, %60
  %.086108 = phi i32 [ %18, %.lr.ph ], [ %64, %60 ]
  %.088107 = phi i16 [ %15, %.lr.ph ], [ %27, %60 ]
  %27 = add i16 %.088107, -1
  %.not96 = icmp eq i16 %.088107, 0
  br i1 %.not96, label %.critedge, label %28

28:                                               ; preds = %26
  %29 = sub i32 %4, %.086108
  %30 = icmp slt i32 %29, 20
  br i1 %30, label %31, label %33

31:                                               ; preds = %28
  %32 = tail call ptr (ptr, ptr, ptr, ptr, i32, i32, ptr, ...) @proto_tree_add_expert_format(ptr noundef %2, ptr noundef %1, ptr noundef nonnull @ei_olsr_not_enough_bytes, ptr noundef %0, i32 noundef %.086108, i32 noundef %29, ptr noundef nonnull @.str.141)
  br label %.critedge

33:                                               ; preds = %28
  %34 = tail call zeroext i16 @tvb_get_ntohs(ptr noundef %0, i32 noundef %.086108)
  %35 = add nsw i32 %.086108, 2
  %36 = tail call zeroext i16 @tvb_get_ntohs(ptr noundef %0, i32 noundef %35)
  %37 = zext i16 %36 to i32
  %38 = add nsw i32 %37, -1
  %39 = or i32 %38, 3
  %40 = add nsw i32 %39, 21
  %41 = load i32, ptr @hf_olsrorg_ns, align 4
  %42 = zext i16 %34 to i32
  %43 = tail call ptr @val_to_str_const(i32 noundef %42, ptr noundef nonnull @nameservice_type_vals, ptr noundef nonnull @.str.123)
  %44 = tail call ptr (ptr, i32, ptr, i32, i32, ptr, ptr, ...) @proto_tree_add_bytes_format_value(ptr noundef %2, i32 noundef %41, ptr noundef %0, i32 noundef %.086108, i32 noundef %40, ptr noundef null, ptr noundef nonnull @.str.122, ptr noundef %43, i32 noundef %42)
  %45 = load i32, ptr @ett_olsr_message_ns, align 4
  %46 = tail call ptr @proto_item_add_subtree(ptr noundef %44, i32 noundef %45)
  %47 = load i32, ptr @hf_olsrorg_ns_type, align 4
  %48 = tail call ptr @proto_tree_add_item(ptr noundef %46, i32 noundef %47, ptr noundef %0, i32 noundef %.086108, i32 noundef 2, i32 noundef 0)
  %49 = load i32, ptr @hf_olsrorg_ns_length, align 4
  %50 = tail call ptr @proto_tree_add_uint(ptr noundef %46, i32 noundef %49, ptr noundef %0, i32 noundef %35, i32 noundef 2, i32 noundef %37)
  %51 = load i32, ptr %20, align 8
  switch i32 %51, label %.critedge [
    i32 2, label %53
    i32 3, label %52
  ]

52:                                               ; preds = %33
  br label %53

53:                                               ; preds = %33, %52
  %hf_olsrorg_ns_ip6.sink = phi ptr [ @hf_olsrorg_ns_ip6, %52 ], [ @hf_olsrorg_ns_ip, %33 ]
  %.sink118 = phi i32 [ 16, %52 ], [ 4, %33 ]
  %54 = load i32, ptr %hf_olsrorg_ns_ip6.sink, align 4
  %55 = add nsw i32 %.086108, 4
  %56 = tail call ptr @proto_tree_add_item(ptr noundef %46, i32 noundef %54, ptr noundef %0, i32 noundef %55, i32 noundef %.sink118, i32 noundef 0)
  %57 = icmp slt i32 %29, %40
  br i1 %57, label %58, label %60

58:                                               ; preds = %53
  %59 = tail call ptr (ptr, ptr, ptr, ptr, i32, i32, ptr, ...) @proto_tree_add_expert_format(ptr noundef %2, ptr noundef %1, ptr noundef nonnull @ei_olsr_not_enough_bytes, ptr noundef %0, i32 noundef %.086108, i32 noundef %29, ptr noundef nonnull @.str.142)
  br label %.critedge

60:                                               ; preds = %53
  %61 = load i32, ptr @hf_olsrorg_ns_content, align 4
  %62 = add nsw i32 %.086108, 20
  %63 = tail call ptr @proto_tree_add_item(ptr noundef %46, i32 noundef %61, ptr noundef %0, i32 noundef %62, i32 noundef %37, i32 noundef 0)
  %64 = add i32 %40, %.086108
  %65 = icmp slt i32 %64, %4
  br i1 %65, label %26, label %.critedge

.critedge:                                        ; preds = %60, %26, %33, %.preheader, %58, %31, %21, %8
  ret i32 %4
}